target datalayout = "e-m:e-p270:32:32-p271:32:32-p272:64:64-i64:64-i128:128-f80:128-n8:16:32:64-S128"
target triple = "x86_64-pc-linux-gnu"

%struct.ossl_param_st = type { ptr, i32, ptr, i64, i64 }
%struct.TEST_ENCAPDATA = type { ptr, ptr, i64, ptr, i64, ptr, i64, ptr, i64, ptr, i64, ptr, i64, ptr, i64 }

@opparam = internal global [2 x %struct.ossl_param_st] zeroinitializer, align 16
@.str.3 = private unnamed_addr constant [38 x i8] c"../openssl/test/evp_pkey_dhkem_test.c\00", align 1
@rctx = internal global [2 x ptr] zeroinitializer, align 16
@.str.50 = private unnamed_addr constant [2 x i8] c"1\00", align 1
@.str.74 = private unnamed_addr constant [2 x i8] c"0\00", align 1
@.str.80 = private unnamed_addr constant [40 x i8] c"EVP_PKEY_encapsulate_init(ctx, opparam)\00", align 1
@.str.83 = private unnamed_addr constant [40 x i8] c"EVP_PKEY_decapsulate_init(ctx, opparam)\00", align 1
@.str.85 = private unnamed_addr constant [51 x i8] c"EVP_PKEY_auth_encapsulate_init(ctx, NULL, opparam)\00", align 1
@.str.86 = private unnamed_addr constant [51 x i8] c"EVP_PKEY_auth_decapsulate_init(ctx, NULL, opparam)\00", align 1
@.str.87 = private unnamed_addr constant [75 x i8] c"EVP_PKEY_decapsulate(ctx, NULL, NULL, t->expected_enc, t->expected_enclen)\00", align 1
@.str.88 = private unnamed_addr constant [50 x i8] c"EVP_PKEY_encapsulate(ctx, NULL, NULL, NULL, NULL)\00", align 1

; Function Attrs: nounwind uwtable
define internal i32 @test_null_params(i32 noundef %0) #0 {
  %2 = alloca i32, align 4
  %3 = alloca ptr, align 8
  %4 = alloca ptr, align 8
  store i32 %0, ptr %2, align 4, !tbaa !10
  call void @llvm.lifetime.start.p0(i64 8, ptr %3) #6
  %5 = load i32, ptr %2, align 4, !tbaa !10
  %6 = sext i32 %5 to i64
  %7 = getelementptr inbounds [2 x ptr], ptr @rctx, i64 0, i64 %6
  %8 = load ptr, ptr %7, align 8, !tbaa !19
  store ptr %8, ptr %3, align 8, !tbaa !19
  call void @llvm.lifetime.start.p0(i64 8, ptr %4) #6
  %9 = load i32, ptr %2, align 4, !tbaa !10
  %10 = sext i32 %9 to i64
  %11 = getelementptr inbounds [5 x %struct.TEST_ENCAPDATA], ptr @ec_encapdata, i64 0, i64 %10
  store ptr %11, ptr %4, align 8, !tbaa !12
  %12 = load ptr, ptr %3, align 8, !tbaa !19
  %13 = call i32 @EVP_PKEY_auth_encapsulate_init(ptr noundef %12, ptr noundef null, ptr noundef @opparam)
  %14 = call i32 @test_int_eq(ptr noundef @.str.3, i32 noundef 330, ptr noundef @.str.85, ptr noundef @.str.74, i32 noundef %13, i32 noundef 0)
  %15 = icmp ne i32 %14, 0
  br i1 %15, label %16, label %47

16:                                               ; preds = %1
  %17 = load ptr, ptr %3, align 8, !tbaa !19
  %18 = call i32 @EVP_PKEY_auth_decapsulate_init(ptr noundef %17, ptr noundef null, ptr noundef @opparam)
  %19 = call i32 @test_int_eq(ptr noundef @.str.3, i32 noundef 331, ptr noundef @.str.86, ptr noundef @.str.74, i32 noundef %18, i32 noundef 0)
  %20 = icmp ne i32 %19, 0
  br i1 %20, label %21, label %47

21:                                               ; preds = %16
  %22 = load ptr, ptr %3, align 8, !tbaa !19
  %23 = call i32 @EVP_PKEY_decapsulate_init(ptr noundef %22, ptr noundef @opparam)
  %24 = call i32 @test_int_eq(ptr noundef @.str.3, i32 noundef 333, ptr noundef @.str.83, ptr noundef @.str.50, i32 noundef %23, i32 noundef 1)
  %25 = icmp ne i32 %24, 0
  br i1 %25, label %26, label %47

26:                                               ; preds = %21
  %27 = load ptr, ptr %3, align 8, !tbaa !19
  %28 = load ptr, ptr %4, align 8, !tbaa !12
  %29 = getelementptr inbounds nuw %struct.TEST_ENCAPDATA, ptr %28, i32 0, i32 7
  %30 = load ptr, ptr %29, align 8, !tbaa !35
  %31 = load ptr, ptr %4, align 8, !tbaa !12
  %32 = getelementptr inbounds nuw %struct.TEST_ENCAPDATA, ptr %31, i32 0, i32 8
  %33 = load i64, ptr %32, align 8, !tbaa !36
  %34 = call i32 @EVP_PKEY_decapsulate(ptr noundef %27, ptr noundef null, ptr noundef null, ptr noundef %30, i64 noundef %33)
  %35 = call i32 @test_int_eq(ptr noundef @.str.3, i32 noundef 336, ptr noundef @.str.87, ptr noundef @.str.74, i32 noundef %34, i32 noundef 0)
  %36 = icmp ne i32 %35, 0
  br i1 %36, label %37, label %47

37:                                               ; preds = %26
  %38 = load ptr, ptr %3, align 8, !tbaa !19
  %39 = call i32 @EVP_PKEY_encapsulate_init(ptr noundef %38, ptr noundef @opparam)
  %40 = call i32 @test_int_eq(ptr noundef @.str.3, i32 noundef 338, ptr noundef @.str.80, ptr noundef @.str.50, i32 noundef %39, i32 noundef 1)
  %41 = icmp ne i32 %40, 0
  br i1 %41, label %42, label %47

42:                                               ; preds = %37
  %43 = load ptr, ptr %3, align 8, !tbaa !19
  %44 = call i32 @EVP_PKEY_encapsulate(ptr noundef %43, ptr noundef null, ptr noundef null, ptr noundef null, ptr noundef null)
  %45 = call i32 @test_int_eq(ptr noundef @.str.3, i32 noundef 340, ptr noundef @.str.88, ptr noundef @.str.74, i32 noundef %44, i32 noundef 0)
  %46 = icmp ne i32 %45, 0
  br label %47

47:                                               ; preds = %42, %37, %26, %21, %16, %1
  %48 = phi i1 [ false, %37 ], [ false, %26 ], [ false, %21 ], [ false, %16 ], [ false, %1 ], [ %46, %42 ]
  %49 = zext i1 %48 to i32
  call void @llvm.lifetime.end.p0(i64 8, ptr %4) #6
  call void @llvm.lifetime.end.p0(i64 8, ptr %3) #6
  ret i32 %49
}