; Function Attrs: nounwind uwtable
define internal range(i32 0, 2) i32 @test_null_params(i32 noundef %0) #0 {
  %2 = sext i32 %0 to i64
  %3 = getelementptr inbounds [2 x ptr], ptr @rctx, i64 0, i64 %2
  %4 = load ptr, ptr %3, align 8, !tbaa !19
  %5 = getelementptr inbounds [5 x %struct.TEST_ENCAPDATA], ptr @ec_encapdata, i64 0, i64 %2
  %6 = tail call i32 @EVP_PKEY_auth_encapsulate_init(ptr noundef %4, ptr noundef null, ptr noundef nonnull @opparam) #5
  %7 = tail call i32 @test_int_eq(ptr noundef nonnull @.str.3, i32 noundef 330, ptr noundef nonnull @.str.85, ptr noundef nonnull @.str.74, i32 noundef %6, i32 noundef 0) #5
  %.not = icmp eq i32 %7, 0
  br i1 %.not, label %29, label %8

8:                                                ; preds = %1
  %9 = tail call i32 @EVP_PKEY_auth_decapsulate_init(ptr noundef %4, ptr noundef null, ptr noundef nonnull @opparam) #5
  %10 = tail call i32 @test_int_eq(ptr noundef nonnull @.str.3, i32 noundef 331, ptr noundef nonnull @.str.86, ptr noundef nonnull @.str.74, i32 noundef %9, i32 noundef 0) #5
  %.not9 = icmp eq i32 %10, 0
  br i1 %.not9, label %29, label %11

11:                                               ; preds = %8
  %12 = tail call i32 @EVP_PKEY_decapsulate_init(ptr noundef %4, ptr noundef nonnull @opparam) #5
  %13 = tail call i32 @test_int_eq(ptr noundef nonnull @.str.3, i32 noundef 333, ptr noundef nonnull @.str.83, ptr noundef nonnull @.str.50, i32 noundef %12, i32 noundef 1) #5
  %.not10 = icmp eq i32 %13, 0
  br i1 %.not10, label %29, label %14

14:                                               ; preds = %11
  %15 = getelementptr inbounds nuw i8, ptr %5, i64 56
  %16 = load ptr, ptr %15, align 8, !tbaa !31
  %17 = getelementptr inbounds nuw i8, ptr %5, i64 64
  %18 = load i64, ptr %17, align 8, !tbaa !32
  %19 = tail call i32 @EVP_PKEY_decapsulate(ptr noundef %4, ptr noundef null, ptr noundef null, ptr noundef %16, i64 noundef %18) #5
  %20 = tail call i32 @test_int_eq(ptr noundef nonnull @.str.3, i32 noundef 336, ptr noundef nonnull @.str.87, ptr noundef nonnull @.str.74, i32 noundef %19, i32 noundef 0) #5
  %.not11 = icmp eq i32 %20, 0
  br i1 %.not11, label %29, label %21

21:                                               ; preds = %14
  %22 = tail call i32 @EVP_PKEY_encapsulate_init(ptr noundef %4, ptr noundef nonnull @opparam) #5
  %23 = tail call i32 @test_int_eq(ptr noundef nonnull @.str.3, i32 noundef 338, ptr noundef nonnull @.str.80, ptr noundef nonnull @.str.50, i32 noundef %22, i32 noundef 1) #5
  %.not12 = icmp eq i32 %23, 0
  br i1 %.not12, label %29, label %24

24:                                               ; preds = %21
  %25 = tail call i32 @EVP_PKEY_encapsulate(ptr noundef %4, ptr noundef null, ptr noundef null, ptr noundef null, ptr noundef null) #5
  %26 = tail call i32 @test_int_eq(ptr noundef nonnull @.str.3, i32 noundef 340, ptr noundef nonnull @.str.88, ptr noundef nonnull @.str.74, i32 noundef %25, i32 noundef 0) #5
  %27 = icmp ne i32 %26, 0
  %28 = zext i1 %27 to i32
  br label %29

29:                                               ; preds = %24, %21, %14, %11, %8, %1
  %30 = phi i32 [ 0, %21 ], [ 0, %14 ], [ 0, %11 ], [ 0, %8 ], [ 0, %1 ], [ %28, %24 ]
  ret i32 %30
}